target datalayout = "e-m:e-p270:32:32-p271:32:32-p272:64:64-i64:64-i128:128-f80:128-n8:16:32:64-S128"
target triple = "x86_64-pc-linux-gnu"

%"class.pbrt::Point2" = type { %"class.pbrt::Tuple2" }
%"class.pbrt::Tuple2" = type { i32, i32 }
%class.anon.22 = type { ptr, ptr, ptr, ptr }
%"struct.pbrt::WrapMode2D" = type { %"class.pstd::array" }
%"class.pstd::array" = type { [2 x i32] }
%"class.std::initializer_list.92" = type { ptr, i64 }

; Function Attrs: mustprogress nounwind uwtable
define linkonce_odr dso_local noundef i64 @_ZNKSt16initializer_listIN4pbrt8WrapModeEE4sizeEv(ptr noundef nonnull align 8 dereferenceable(16) %0) #4 comdat align 2 {
  %2 = alloca ptr, align 8
  store ptr %0, ptr %2, align 8, !tbaa !599
  %3 = load ptr, ptr %2, align 8
  %4 = getelementptr inbounds nuw %"class.std::initializer_list.92", ptr %3, i32 0, i32 1
  %5 = load i64, ptr %4, align 8, !tbaa !207
  ret i64 %5
}

; Function Attrs: mustprogress nounwind uwtable
define linkonce_odr dso_local noundef ptr @_ZNKSt16initializer_listIN4pbrt8WrapModeEE3endEv(ptr noundef nonnull align 8 dereferenceable(16) %0) #4 comdat align 2 {
  %2 = alloca ptr, align 8
  store ptr %0, ptr %2, align 8, !tbaa !599
  %3 = load ptr, ptr %2, align 8
  %4 = call noundef ptr @_ZNKSt16initializer_listIN4pbrt8WrapModeEE5beginEv(ptr noundef nonnull align 8 dereferenceable(16) %3) #14
  %5 = call noundef i64 @_ZNKSt16initializer_listIN4pbrt8WrapModeEE4sizeEv(ptr noundef nonnull align 8 dereferenceable(16) %3) #14
  %6 = getelementptr inbounds nuw i32, ptr %4, i64 %5
  ret ptr %6
}

; Function Attrs: mustprogress nounwind uwtable
define linkonce_odr dso_local noundef ptr @_ZNKSt16initializer_listIN4pbrt8WrapModeEE5beginEv(ptr noundef nonnull align 8 dereferenceable(16) %0) #4 comdat align 2 {
  %2 = alloca ptr, align 8
  store ptr %0, ptr %2, align 8, !tbaa !599
  %3 = load ptr, ptr %2, align 8
  %4 = getelementptr inbounds nuw %"class.std::initializer_list.92", ptr %3, i32 0, i32 0
  %5 = load ptr, ptr %4, align 8, !tbaa !205
  ret ptr %5
}

; Function Attrs: mustprogress nounwind uwtable
define linkonce_odr dso_local void @_ZN4pstd5arrayIN4pbrt8WrapModeELi2EEC2ESt16initializer_listIS2_E(ptr noundef nonnull align 4 dereferenceable(8) %0, ptr %1, i64 %2) unnamed_addr #4 comdat align 2 {
  %4 = alloca %"class.std::initializer_list.92", align 8
  %5 = alloca ptr, align 8
  %6 = alloca i64, align 8
  %7 = alloca ptr, align 8
  %8 = alloca ptr, align 8
  %9 = alloca ptr, align 8
  %10 = alloca ptr, align 8
  %11 = getelementptr inbounds nuw { ptr, i64 }, ptr %4, i32 0, i32 0
  store ptr %1, ptr %11, align 8
  %12 = getelementptr inbounds nuw { ptr, i64 }, ptr %4, i32 0, i32 1
  store i64 %2, ptr %12, align 8
  store ptr %0, ptr %5, align 8, !tbaa !579
  %13 = load ptr, ptr %5, align 8
  %14 = getelementptr inbounds nuw %"class.pstd::array", ptr %13, i32 0, i32 0
  %15 = getelementptr inbounds i32, ptr %14, i64 2
  br label %16

16:                                               ; preds = %16, %3
  %17 = phi ptr [ %14, %3 ], [ %18, %16 ]
  store i32 0, ptr %17, align 4, !tbaa !203
  %18 = getelementptr inbounds i32, ptr %17, i64 1
  %19 = icmp eq ptr %18, %15
  br i1 %19, label %20, label %16

20:                                               ; preds = %16
  call void @llvm.lifetime.start.p0(i64 8, ptr %6) #14
  store i64 0, ptr %6, align 8, !tbaa !71
  call void @llvm.lifetime.start.p0(i64 8, ptr %7) #14
  store ptr %4, ptr %7, align 8, !tbaa !599
  call void @llvm.lifetime.start.p0(i64 8, ptr %8) #14
  %21 = load ptr, ptr %7, align 8, !tbaa !599
  %22 = call noundef ptr @_ZNKSt16initializer_listIN4pbrt8WrapModeEE5beginEv(ptr noundef nonnull align 8 dereferenceable(16) %21) #14
  store ptr %22, ptr %8, align 8, !tbaa !64
  call void @llvm.lifetime.start.p0(i64 8, ptr %9) #14
  %23 = load ptr, ptr %7, align 8, !tbaa !599
  %24 = call noundef ptr @_ZNKSt16initializer_listIN4pbrt8WrapModeEE3endEv(ptr noundef nonnull align 8 dereferenceable(16) %23) #14
  store ptr %24, ptr %9, align 8, !tbaa !64
  br label %25

25:                                               ; preds = %38, %20
  %26 = load ptr, ptr %8, align 8, !tbaa !64
  %27 = load ptr, ptr %9, align 8, !tbaa !64
  %28 = icmp ne ptr %26, %27
  br i1 %28, label %30, label %29

29:                                               ; preds = %25
  call void @llvm.lifetime.end.p0(i64 8, ptr %9) #14
  call void @llvm.lifetime.end.p0(i64 8, ptr %8) #14
  call void @llvm.lifetime.end.p0(i64 8, ptr %7) #14
  br label %41

30:                                               ; preds = %25
  call void @llvm.lifetime.start.p0(i64 8, ptr %10) #14
  %31 = load ptr, ptr %8, align 8, !tbaa !64
  store ptr %31, ptr %10, align 8, !tbaa !64
  %32 = load ptr, ptr %10, align 8, !tbaa !64
  %33 = load i32, ptr %32, align 4, !tbaa !203
  %34 = getelementptr inbounds nuw %"class.pstd::array", ptr %13, i32 0, i32 0
  %35 = load i64, ptr %6, align 8, !tbaa !71
  %36 = add i64 %35, 1
  store i64 %36, ptr %6, align 8, !tbaa !71
  %37 = getelementptr inbounds nuw [2 x i32], ptr %34, i64 0, i64 %35
  store i32 %33, ptr %37, align 4, !tbaa !203
  call void @llvm.lifetime.end.p0(i64 8, ptr %10) #14
  br label %38

38:                                               ; preds = %30
  %39 = load ptr, ptr %8, align 8, !tbaa !64
  %40 = getelementptr inbounds nuw i32, ptr %39, i32 1
  store ptr %40, ptr %8, align 8, !tbaa !64
  br label %25

41:                                               ; preds = %29
  call void @llvm.lifetime.end.p0(i64 8, ptr %6) #14
  ret void
}

; Function Attrs: mustprogress nounwind uwtable
define linkonce_odr dso_local void @_ZN4pbrt6Tuple2INS_6Point2EiEC2Eii(ptr noundef nonnull align 4 dereferenceable(8) %0, i32 noundef %1, i32 noundef %2) unnamed_addr #4 comdat align 2 {
  %4 = alloca ptr, align 8
  %5 = alloca i32, align 4
  %6 = alloca i32, align 4
  store ptr %0, ptr %4, align 8, !tbaa !419
  store i32 %1, ptr %5, align 4, !tbaa !13
  store i32 %2, ptr %6, align 4, !tbaa !13
  %7 = load ptr, ptr %4, align 8
  %8 = getelementptr inbounds nuw %"class.pbrt::Tuple2", ptr %7, i32 0, i32 0
  %9 = load i32, ptr %5, align 4, !tbaa !13
  store i32 %9, ptr %8, align 4, !tbaa !270
  %10 = getelementptr inbounds nuw %"class.pbrt::Tuple2", ptr %7, i32 0, i32 1
  %11 = load i32, ptr %6, align 4, !tbaa !13
  store i32 %11, ptr %10, align 4, !tbaa !271
  br label %12

12:                                               ; preds = %3
  br label %13

13:                                               ; preds = %12
  ret void
}

; Function Attrs: mustprogress uwtable
define linkonce_odr dso_local void @_ZN4pbrt10WrapMode2DC2ENS_8WrapModeE(ptr noundef nonnull align 4 dereferenceable(8) %0, i32 noundef %1) unnamed_addr #1 comdat align 2 {
  %3 = alloca ptr, align 8
  %4 = alloca i32, align 4
  %5 = alloca %"class.std::initializer_list.92", align 8
  %6 = alloca [2 x i32], align 4
  store ptr %0, ptr %3, align 8, !tbaa !201
  store i32 %1, ptr %4, align 4, !tbaa !203
  %7 = load ptr, ptr %3, align 8
  %8 = getelementptr inbounds nuw %"struct.pbrt::WrapMode2D", ptr %7, i32 0, i32 0
  call void @llvm.lifetime.start.p0(i64 8, ptr %6) #14
  %9 = load i32, ptr %4, align 4, !tbaa !203
  store i32 %9, ptr %6, align 4, !tbaa !203
  %10 = getelementptr inbounds i32, ptr %6, i64 1
  %11 = load i32, ptr %4, align 4, !tbaa !203
  store i32 %11, ptr %10, align 4, !tbaa !203
  %12 = getelementptr inbounds nuw %"class.std::initializer_list.92", ptr %5, i32 0, i32 0
  store ptr %6, ptr %12, align 8, !tbaa !205
  %13 = getelementptr inbounds nuw %"class.std::initializer_list.92", ptr %5, i32 0, i32 1
  store i64 2, ptr %13, align 8, !tbaa !207
  %14 = getelementptr inbounds nuw { ptr, i64 }, ptr %5, i32 0, i32 0
  %15 = load ptr, ptr %14, align 8
  %16 = getelementptr inbounds nuw { ptr, i64 }, ptr %5, i32 0, i32 1
  %17 = load i64, ptr %16, align 8
  call void @_ZN4pstd5arrayIN4pbrt8WrapModeELi2EEC2ESt16initializer_listIS2_E(ptr noundef nonnull align 4 dereferenceable(8) %8, ptr %15, i64 %17)
  call void @llvm.lifetime.end.p0(i64 8, ptr %6) #14
  ret void
}

; Function Attrs: mustprogress uwtable
define linkonce_odr dso_local void @_ZN4pbrt6Point2IiEC2Eii(ptr noundef nonnull align 4 dereferenceable(8) %0, i32 noundef %1, i32 noundef %2) unnamed_addr #1 comdat align 2 {
  %4 = alloca ptr, align 8
  %5 = alloca i32, align 4
  %6 = alloca i32, align 4
  store ptr %0, ptr %4, align 8, !tbaa !93
  store i32 %1, ptr %5, align 4, !tbaa !13
  store i32 %2, ptr %6, align 4, !tbaa !13
  %7 = load ptr, ptr %4, align 8
  %8 = load i32, ptr %5, align 4, !tbaa !13
  %9 = load i32, ptr %6, align 4, !tbaa !13
  call void @_ZN4pbrt6Tuple2INS_6Point2EiEC2Eii(ptr noundef nonnull align 4 dereferenceable(8) %7, i32 noundef %8, i32 noundef %9)
  ret void
}

; Function Attrs: inlinehint mustprogress uwtable
define internal void @"_ZZ4mainENK3$_2clEi"(ptr noundef nonnull align 8 dereferenceable(32) %0, i32 noundef %1) #7 align 2 {
  %3 = alloca ptr, align 8
  %4 = alloca i32, align 4
  %5 = alloca i32, align 4
  %6 = alloca %"class.pbrt::Point2", align 4
  %7 = alloca %"class.pbrt::Point2", align 4
  %8 = alloca %"struct.pbrt::WrapMode2D", align 4
  store ptr %0, ptr %3, align 8, !tbaa !64
  store i32 %1, ptr %4, align 4, !tbaa !13
  %9 = load ptr, ptr %3, align 8
  call void @llvm.lifetime.start.p0(i64 4, ptr %5) #14
  store i32 0, ptr %5, align 4, !tbaa !13
  br label %10

10:                                               ; preds = %46, %2
  %11 = load i32, ptr %5, align 4, !tbaa !13
  %12 = getelementptr inbounds nuw %class.anon.22, ptr %9, i32 0, i32 0
  %13 = load ptr, ptr %12, align 8, !tbaa !665
  %14 = load i32, ptr %13, align 4, !tbaa !13
  %15 = icmp slt i32 %11, %14
  br i1 %15, label %17, label %16

16:                                               ; preds = %10
  call void @llvm.lifetime.end.p0(i64 4, ptr %5) #14
  br label %49

17:                                               ; preds = %10
  %18 = getelementptr inbounds nuw %class.anon.22, ptr %9, i32 0, i32 1
  %19 = load ptr, ptr %18, align 8, !tbaa !667
  %20 = load ptr, ptr %19, align 8, !tbaa !36
  %21 = load i32, ptr %5, align 4, !tbaa !13
  %22 = load i32, ptr %4, align 4, !tbaa !13
  call void @_ZN4pbrt6Point2IiEC2Eii(ptr noundef nonnull align 4 dereferenceable(8) %6, i32 noundef %21, i32 noundef %22)
  %23 = getelementptr inbounds nuw %class.anon.22, ptr %9, i32 0, i32 1
  %24 = load ptr, ptr %23, align 8, !tbaa !667
  %25 = load ptr, ptr %24, align 8, !tbaa !36
  %26 = load i32, ptr %5, align 4, !tbaa !13
  %27 = load i32, ptr %4, align 4, !tbaa !13
  call void @_ZN4pbrt6Point2IiEC2Eii(ptr noundef nonnull align 4 dereferenceable(8) %7, i32 noundef %26, i32 noundef %27)
  call void @_ZN4pbrt10WrapMode2DC2ENS_8WrapModeE(ptr noundef nonnull align 4 dereferenceable(8) %8, i32 noundef 1)
  %28 = getelementptr inbounds nuw %"class.pbrt::Point2", ptr %7, i32 0, i32 0
  %29 = load i64, ptr %28, align 4
  %30 = getelementptr inbounds nuw %"struct.pbrt::WrapMode2D", ptr %8, i32 0, i32 0
  %31 = getelementptr inbounds nuw %"class.pstd::array", ptr %30, i32 0, i32 0
  %32 = load i64, ptr %31, align 4
  %33 = call noundef float @_ZNK4pbrt5Image10GetChannelENS_6Point2IiEEiNS_10WrapMode2DE(ptr noundef nonnull align 8 dereferenceable(152) %25, i64 %29, i32 noundef 0, i64 %32)
  %34 = getelementptr inbounds nuw %class.anon.22, ptr %9, i32 0, i32 2
  %35 = load ptr, ptr %34, align 8, !tbaa !668
  %36 = load i32, ptr %35, align 4, !tbaa !13
  %37 = sitofp i32 %36 to float
  %38 = getelementptr inbounds nuw %class.anon.22, ptr %9, i32 0, i32 3
  %39 = load ptr, ptr %38, align 8, !tbaa !669
  %40 = load i32, ptr %39, align 4, !tbaa !13
  %41 = sitofp i32 %40 to float
  %42 = fmul float %37, %41
  %43 = fdiv float %33, %42
  %44 = getelementptr inbounds nuw %"class.pbrt::Point2", ptr %6, i32 0, i32 0
  %45 = load i64, ptr %44, align 4
  call void @_ZN4pbrt5Image10SetChannelENS_6Point2IiEEif(ptr noundef nonnull align 8 dereferenceable(152) %20, i64 %45, i32 noundef 0, float noundef %43)
  br label %46

46:                                               ; preds = %17
  %47 = load i32, ptr %5, align 4, !tbaa !13
  %48 = add nsw i32 %47, 1
  store i32 %48, ptr %5, align 4, !tbaa !13
  br label %10, !llvm.loop !670

49:                                               ; preds = %16
  ret void
}

; Function Attrs: mustprogress nounwind uwtable
define linkonce_odr dso_local noundef ptr @_ZNKSt9_Any_data9_M_accessEv(ptr noundef nonnull align 8 dereferenceable(16) %0) #4 comdat align 2 {
  %2 = alloca ptr, align 8
  store ptr %0, ptr %2, align 8, !tbaa !490
  %3 = load ptr, ptr %2, align 8
  %4 = getelementptr inbounds [16 x i8], ptr %3, i64 0, i64 0
  ret ptr %4
}

; Function Attrs: mustprogress uwtable
define internal void @"_ZSt13__invoke_implIvRZ4mainE3$_2JlEET_St14__invoke_otherOT0_DpOT1_"(ptr noundef nonnull align 8 dereferenceable(32) %0, ptr noundef nonnull align 8 dereferenceable(8) %1) #1 {
  %3 = alloca ptr, align 8
  %4 = alloca ptr, align 8
  store ptr %0, ptr %3, align 8, !tbaa !64
  store ptr %1, ptr %4, align 8, !tbaa !292
  %5 = load ptr, ptr %3, align 8, !tbaa !64
  %6 = load ptr, ptr %4, align 8, !tbaa !292
  %7 = load i64, ptr %6, align 8, !tbaa !71
  %8 = trunc i64 %7 to i32
  call void @"_ZZ4mainENK3$_2clEi"(ptr noundef nonnull align 8 dereferenceable(32) %5, i32 noundef %8)
  ret void
}

; Function Attrs: mustprogress nounwind uwtable
define internal noundef nonnull align 8 dereferenceable(8) ptr @"_ZNKSt9_Any_data9_M_accessIPZ4mainE3$_2EERKT_v"(ptr noundef nonnull align 8 dereferenceable(16) %0) #4 align 2 {
  %2 = alloca ptr, align 8
  store ptr %0, ptr %2, align 8, !tbaa !490
  %3 = load ptr, ptr %2, align 8
  %4 = call noundef ptr @_ZNKSt9_Any_data9_M_accessEv(ptr noundef nonnull align 8 dereferenceable(16) %3) #14
  ret ptr %4
}

; Function Attrs: mustprogress uwtable
define internal void @"_ZSt10__invoke_rIvRZ4mainE3$_2JlEENSt9enable_ifIX16is_invocable_r_vIT_T0_DpT1_EES3_E4typeEOS4_DpOS5_"(ptr noundef nonnull align 8 dereferenceable(32) %0, ptr noundef nonnull align 8 dereferenceable(8) %1) #1 {
  %3 = alloca ptr, align 8
  %4 = alloca ptr, align 8
  store ptr %0, ptr %3, align 8, !tbaa !64
  store ptr %1, ptr %4, align 8, !tbaa !292
  %5 = load ptr, ptr %3, align 8, !tbaa !64
  %6 = load ptr, ptr %4, align 8, !tbaa !292
  call void @"_ZSt13__invoke_implIvRZ4mainE3$_2JlEET_St14__invoke_otherOT0_DpOT1_"(ptr noundef nonnull align 8 dereferenceable(32) %5, ptr noundef nonnull align 8 dereferenceable(8) %6)
  ret void
}

; Function Attrs: mustprogress nounwind uwtable
define internal noundef ptr @"_ZNSt14_Function_base13_Base_managerIZ4mainE3$_2E14_M_get_pointerERKSt9_Any_data"(ptr noundef nonnull align 8 dereferenceable(16) %0) #4 align 2 {
  %2 = alloca ptr, align 8
  store ptr %0, ptr %2, align 8, !tbaa !490
  %3 = load ptr, ptr %2, align 8, !tbaa !490
  %4 = call noundef nonnull align 8 dereferenceable(8) ptr @"_ZNKSt9_Any_data9_M_accessIPZ4mainE3$_2EERKT_v"(ptr noundef nonnull align 8 dereferenceable(16) %3) #14
  %5 = load ptr, ptr %4, align 8, !tbaa !64
  ret ptr %5
}

; Function Attrs: mustprogress uwtable
define internal void @"_ZNSt17_Function_handlerIFvlEZ4mainE3$_2E9_M_invokeERKSt9_Any_dataOl"(ptr noundef nonnull align 8 dereferenceable(16) %0, ptr noundef nonnull align 8 dereferenceable(8) %1) #1 align 2 {
  %3 = alloca ptr, align 8
  %4 = alloca ptr, align 8
  store ptr %0, ptr %3, align 8, !tbaa !490
  store ptr %1, ptr %4, align 8, !tbaa !292
  %5 = load ptr, ptr %3, align 8, !tbaa !490
  %6 = call noundef ptr @"_ZNSt14_Function_base13_Base_managerIZ4mainE3$_2E14_M_get_pointerERKSt9_Any_data"(ptr noundef nonnull align 8 dereferenceable(16) %5) #14
  %7 = load ptr, ptr %4, align 8, !tbaa !292
  call void @"_ZSt10__invoke_rIvRZ4mainE3$_2JlEENSt9enable_ifIX16is_invocable_r_vIT_T0_DpT1_EES3_E4typeEOS4_DpOS5_"(ptr noundef nonnull align 8 dereferenceable(32) %6, ptr noundef nonnull align 8 dereferenceable(8) %7)
  ret void
}