; Function Attrs: mustprogress uwtable
define internal void @"_ZNSt17_Function_handlerIFvlEZ4mainE3$_2E9_M_invokeERKSt9_Any_dataOl"(ptr noundef nonnull readonly align 8 captures(none) dereferenceable(16) %0, ptr noundef nonnull readonly align 8 captures(none) dereferenceable(8) %1) #5 align 2 {
  %.val = load ptr, ptr %0, align 8, !tbaa !222
  %3 = load ptr, ptr %.val, align 8, !tbaa !694
  %4 = load i32, ptr %3, align 4, !tbaa !15
  %5 = icmp sgt i32 %4, 0
  br i1 %5, label %.lr.ph.i.i.i, label %"_ZSt10__invoke_rIvRZ4mainE3$_2JlEENSt9enable_ifIX16is_invocable_r_vIT_T0_DpT1_EES3_E4typeEOS4_DpOS5_.exit"

.lr.ph.i.i.i:                                     ; preds = %2
  %.val2 = load i64, ptr %1, align 8, !tbaa !30
  %6 = getelementptr inbounds nuw i8, ptr %.val, i64 8
  %.sroa.27.0.insert.ext.i.i.i = shl i64 %.val2, 32
  %7 = getelementptr inbounds nuw i8, ptr %.val, i64 16
  %8 = getelementptr inbounds nuw i8, ptr %.val, i64 24
  br label %9

9:                                                ; preds = %9, %.lr.ph.i.i.i
  %indvars.iv.i.i.i = phi i64 [ 0, %.lr.ph.i.i.i ], [ %indvars.iv.next.i.i.i, %9 ]
  %10 = load ptr, ptr %6, align 8, !tbaa !696
  %11 = load ptr, ptr %10, align 8, !tbaa !61
  %.sroa.06.0.insert.insert.i.i.i = add nuw nsw i64 %indvars.iv.i.i.i, %.sroa.27.0.insert.ext.i.i.i
  %12 = tail call noundef float @_ZNK4pbrt5Image10GetChannelENS_6Point2IiEEiNS_10WrapMode2DE(ptr noundef nonnull align 8 dereferenceable(152) %11, i64 %.sroa.06.0.insert.insert.i.i.i, i32 noundef 0, i64 4294967297)
  %13 = load ptr, ptr %7, align 8, !tbaa !697
  %14 = load i32, ptr %13, align 4, !tbaa !15
  %15 = sitofp i32 %14 to float
  %16 = load ptr, ptr %8, align 8, !tbaa !698
  %17 = load i32, ptr %16, align 4, !tbaa !15
  %18 = sitofp i32 %17 to float
  %19 = fmul float %15, %18
  %20 = fdiv float %12, %19
  tail call void @_ZN4pbrt5Image10SetChannelENS_6Point2IiEEif(ptr noundef nonnull align 8 dereferenceable(152) %11, i64 %.sroa.06.0.insert.insert.i.i.i, i32 noundef 0, float noundef %20)
  %indvars.iv.next.i.i.i = add nuw nsw i64 %indvars.iv.i.i.i, 1
  %21 = load ptr, ptr %.val, align 8, !tbaa !694
  %22 = load i32, ptr %21, align 4, !tbaa !15
  %23 = sext i32 %22 to i64
  %24 = icmp slt i64 %indvars.iv.next.i.i.i, %23
  br i1 %24, label %9, label %"_ZSt10__invoke_rIvRZ4mainE3$_2JlEENSt9enable_ifIX16is_invocable_r_vIT_T0_DpT1_EES3_E4typeEOS4_DpOS5_.exit", !llvm.loop !699

"_ZSt10__invoke_rIvRZ4mainE3$_2JlEENSt9enable_ifIX16is_invocable_r_vIT_T0_DpT1_EES3_E4typeEOS4_DpOS5_.exit": ; preds = %9, %2
  ret void
}